target datalayout = "e-m:e-p270:32:32-p271:32:32-p272:64:64-i64:64-i128:128-f80:128-n8:16:32:64-S128"
target triple = "x86_64-unknown-linux-gnu"

%"class.std::__cxx11::basic_string" = type { %"struct.std::__cxx11::basic_string<char>::_Alloc_hider", i64, %union.anon }
%"struct.std::__cxx11::basic_string<char>::_Alloc_hider" = type { ptr }
%union.anon = type { i64, [8 x i8] }
%"class.std::basic_string_view" = type { i64, ptr }
%"class.facebook::velox::ReadFile" = type { ptr, %"struct.std::atomic" }
%"struct.std::atomic" = type { %"struct.std::__atomic_base" }
%"struct.std::__atomic_base" = type { i64 }
%"class.facebook::velox::InMemoryReadFile" = type <{ %"class.facebook::velox::ReadFile", %"class.std::__cxx11::basic_string", %"class.std::basic_string_view", i8, [7 x i8] }>

; Function Attrs: mustprogress nounwind uwtable
define linkonce_odr void @_ZNSt17basic_string_viewIcSt11char_traitsIcEEC2EPKcm(ptr noundef nonnull align 8 dereferenceable(16) %this, ptr noundef %__str, i64 noundef %__len) unnamed_addr #3 comdat align 2 {
entry:
  %this.addr = alloca ptr, align 8
  %__str.addr = alloca ptr, align 8
  %__len.addr = alloca i64, align 8
  store ptr %this, ptr %this.addr, align 8
  store ptr %__str, ptr %__str.addr, align 8
  store i64 %__len, ptr %__len.addr, align 8
  %this1 = load ptr, ptr %this.addr, align 8
  %_M_len = getelementptr inbounds %"class.std::basic_string_view", ptr %this1, i32 0, i32 0
  %0 = load i64, ptr %__len.addr, align 8
  store i64 %0, ptr %_M_len, align 8
  %_M_str = getelementptr inbounds %"class.std::basic_string_view", ptr %this1, i32 0, i32 1
  %1 = load ptr, ptr %__str.addr, align 8
  store ptr %1, ptr %_M_str, align 8
  ret void
}

; Function Attrs: mustprogress nounwind uwtable
define linkonce_odr noundef ptr @_ZNKSt17basic_string_viewIcSt11char_traitsIcEE4dataEv(ptr noundef nonnull align 8 dereferenceable(16) %this) #3 comdat align 2 {
entry:
  %this.addr = alloca ptr, align 8
  store ptr %this, ptr %this.addr, align 8
  %this1 = load ptr, ptr %this.addr, align 8
  %_M_str = getelementptr inbounds %"class.std::basic_string_view", ptr %this1, i32 0, i32 1
  %0 = load ptr, ptr %_M_str, align 8
  ret ptr %0
}

; Function Attrs: mustprogress nounwind uwtable
define linkonce_odr noundef i64 @_ZNSt13__atomic_baseImEpLEm(ptr noundef nonnull align 8 dereferenceable(8) %this, i64 noundef %__i) #3 comdat align 2 {
entry:
  %this.addr = alloca ptr, align 8
  %__i.addr = alloca i64, align 8
  %.atomictmp = alloca i64, align 8
  %atomic-temp = alloca i64, align 8
  store ptr %this, ptr %this.addr, align 8
  store i64 %__i, ptr %__i.addr, align 8
  %this1 = load ptr, ptr %this.addr, align 8
  %_M_i = getelementptr inbounds %"struct.std::__atomic_base", ptr %this1, i32 0, i32 0
  %0 = load i64, ptr %__i.addr, align 8
  store i64 %0, ptr %.atomictmp, align 8
  %1 = load i64, ptr %.atomictmp, align 8
  %2 = atomicrmw add ptr %_M_i, i64 %1 seq_cst, align 8
  %3 = add i64 %2, %1
  store i64 %3, ptr %atomic-temp, align 8
  %4 = load i64, ptr %atomic-temp, align 8
  ret i64 %4
}

; Function Attrs: mustprogress nounwind uwtable
define { i64, ptr } @_ZNK8facebook5velox16InMemoryReadFile5preadEmmPv(ptr noundef nonnull align 8 dereferenceable(65) %this, i64 noundef %offset, i64 noundef %length, ptr noundef %buf) unnamed_addr #3 align 2 {
entry:
  %retval = alloca %"class.std::basic_string_view", align 8
  %this.addr = alloca ptr, align 8
  %offset.addr = alloca i64, align 8
  %length.addr = alloca i64, align 8
  %buf.addr = alloca ptr, align 8
  store ptr %this, ptr %this.addr, align 8
  store i64 %offset, ptr %offset.addr, align 8
  store i64 %length, ptr %length.addr, align 8
  store ptr %buf, ptr %buf.addr, align 8
  %this1 = load ptr, ptr %this.addr, align 8
  %0 = load i64, ptr %length.addr, align 8
  %bytesRead_ = getelementptr inbounds %"class.facebook::velox::ReadFile", ptr %this1, i32 0, i32 1
  %call = call noundef i64 @_ZNSt13__atomic_baseImEpLEm(ptr noundef nonnull align 8 dereferenceable(8) %bytesRead_, i64 noundef %0) #9
  %1 = load ptr, ptr %buf.addr, align 8
  %file_ = getelementptr inbounds %"class.facebook::velox::InMemoryReadFile", ptr %this1, i32 0, i32 2
  %call2 = call noundef ptr @_ZNKSt17basic_string_viewIcSt11char_traitsIcEE4dataEv(ptr noundef nonnull align 8 dereferenceable(16) %file_) #9
  %2 = load i64, ptr %offset.addr, align 8
  %add.ptr = getelementptr inbounds i8, ptr %call2, i64 %2
  %3 = load i64, ptr %length.addr, align 8
  call void @llvm.memcpy.p0.p0.i64(ptr align 1 %1, ptr align 1 %add.ptr, i64 %3, i1 false)
  %4 = load ptr, ptr %buf.addr, align 8
  %5 = load i64, ptr %length.addr, align 8
  call void @_ZNSt17basic_string_viewIcSt11char_traitsIcEEC2EPKcm(ptr noundef nonnull align 8 dereferenceable(16) %retval, ptr noundef %4, i64 noundef %5) #9
  %6 = load { i64, ptr }, ptr %retval, align 8
  ret { i64, ptr } %6
}