; Function Attrs: mustprogress nofree norecurse nounwind willreturn memory(readwrite, inaccessiblemem: none) uwtable
define { i64, ptr } @_ZNK8facebook5velox16InMemoryReadFile5preadEmmPv(ptr nocapture noundef nonnull align 8 dereferenceable(65) %this, i64 noundef %offset, i64 noundef %length, ptr noundef %buf) unnamed_addr #4 align 2 {
entry:
  %bytesRead_ = getelementptr inbounds i8, ptr %this, i64 8
  %0 = atomicrmw add ptr %bytesRead_, i64 %length seq_cst, align 8
  %_M_str.i = getelementptr inbounds i8, ptr %this, i64 56
  %1 = load ptr, ptr %_M_str.i, align 8
  %add.ptr = getelementptr inbounds i8, ptr %1, i64 %offset
  tail call void @llvm.memcpy.p0.p0.i64(ptr align 1 %buf, ptr align 1 %add.ptr, i64 %length, i1 false)
  %.fca.0.insert = insertvalue { i64, ptr } poison, i64 %length, 0
  %.fca.1.insert = insertvalue { i64, ptr } %.fca.0.insert, ptr %buf, 1
  ret { i64, ptr } %.fca.1.insert
}